Certificate:
    Data:
        Version: 3 (0x2)
        Serial Number: 2 (0x2)
        Signature Algorithm: sha1WithRSAEncryption
        Issuer: DC=org, DC=simple, O=Simple Inc, OU=Simple Root CA, CN=Simple Root CA
        Validity
            Not Before: Nov 10 20:28:14 2022 GMT
            Not After : Nov  9 20:28:14 2032 GMT
        Subject: DC=org, DC=simple, O=Simple Inc, OU=Simple Signing CA, CN=Simple Signing CA
        Subject Public Key Info:
            Public Key Algorithm: rsaEncryption
                RSA Public-Key: (2048 bit)
                Modulus:
                    00:a3:37:17:aa:4d:5d:f2:04:89:b7:83:03:b0:55:
                    28:15:72:2d:ca:cd:a2:55:11:35:c2:ee:f0:4f:01:
                    8a:f0:62:a8:0c:df:4d:1b:32:d6:42:50:da:31:77:
                    a1:f1:8b:55:4b:d5:1f:d6:fd:71:90:f4:22:dd:de:
                    dd:06:b8:f8:0e:62:fd:64:cf:63:25:86:88:2a:86:
                    a4:82:cf:d1:32:80:12:c6:4c:1d:34:b8:d0:db:8f:
                    1e:17:97:04:be:14:91:2d:69:04:68:6c:0d:e0:d0:
                    fe:be:19:1e:42:85:64:9c:81:b8:b6:19:df:fa:73:
                    ff:27:8d:bf:1e:db:20:d7:a8:0b:bd:fd:5b:2b:1a:
                    61:90:02:8e:b7:6a:ee:3f:e8:dc:5a:f2:a7:33:be:
                    8b:5a:3a:31:53:d2:bc:fc:a7:3c:af:e9:bc:1a:af:
                    3f:26:4c:de:8b:be:9d:37:d1:0d:4f:6d:11:86:7a:
                    8c:c0:e4:1a:7b:eb:32:ce:47:ad:2c:db:da:a3:f4:
                    9a:47:7b:2e:61:e7:37:46:e1:6d:47:72:1d:4d:0d:
                    4f:ca:56:5e:db:d7:da:29:b8:14:82:a0:58:4e:29:
                    1c:a3:6e:25:e0:da:36:78:b4:4b:5c:f3:d1:b2:15:
                    47:53:3c:63:6f:96:14:2a:60:3b:4f:48:60:00:2b:
                    5b:71
                Exponent: 65537 (0x10001)
        X509v3 extensions:
            X509v3 Key Usage: critical
                Certificate Sign, CRL Sign
            X509v3 Basic Constraints: critical
                CA:TRUE, pathlen:0
            X509v3 Subject Key Identifier: 
                34:7B:D3:32:22:5B:0E:7B:5E:95:C4:8C:8A:A2:18:20:D4:98:30:4B
            X509v3 Authority Key Identifier: 
                keyid:9B:47:8B:95:0B:9F:30:5B:25:9B:2B:F6:EA:7B:1A:1A:6D:D8:CA:E9

    Signature Algorithm: sha1WithRSAEncryption
         2a:13:bd:7b:4e:21:cd:af:95:88:4c:84:f0:8a:a5:98:9e:51:
         06:e6:e2:8d:53:da:7c:36:b1:3c:14:06:94:56:f9:cc:73:bd:
         f6:a2:47:09:9a:7d:db:f6:6d:26:d5:01:33:0a:f6:ad:48:8a:
         b7:31:02:bb:9b:10:78:4f:9e:78:8d:bc:30:ca:c1:99:12:de:
         e4:67:e6:ef:78:fa:00:e3:c7:d4:c2:dd:12:a9:c2:91:43:b4:
         85:34:49:c9:34:ab:89:d9:d2:a8:0a:8a:6b:69:31:69:f5:77:
         1c:cc:2a:8c:fa:2d:e9:b6:b7:3c:94:d6:1e:81:6b:3b:fa:79:
         c9:69:85:b3:c2:67:0b:65:65:46:5d:3e:5f:26:27:39:a4:08:
         dd:5d:01:42:58:4e:bf:4e:13:85:9e:a3:24:c5:85:b4:2e:d3:
         62:60:26:ef:18:7d:30:74:8a:0c:87:c2:98:8a:89:d2:55:ae:
         33:7f:ec:1a:54:cf:b5:33:46:87:d9:a8:af:6a:d7:b4:9a:bd:
         8b:69:d2:4d:58:7f:4b:6f:d2:f5:71:84:d6:36:b5:f4:da:6a:
         0e:ac:c1:bc:0b:8d:08:05:80:a1:85:54:db:fc:bd:38:04:4b:
         cc:0e:31:36:7c:0d:bb:90:9d:76:50:aa:1b:dc:13:d4:55:34:
         c6:ed:57:3d
-----BEGIN CERTIFICATE-----
MIIDzzCCAregAwIBAgIBAjANBgkqhkiG9w0BAQUFADB0MRMwEQYKCZImiZPyLGQB
GRYDb3JnMRYwFAYKCZImiZPyLGQBGRYGc2ltcGxlMRMwEQYDVQQKDApTaW1wbGUg
SW5jMRcwFQYDVQQLDA5TaW1wbGUgUm9vdCBDQTEXMBUGA1UEAwwOU2ltcGxlIFJv
b3QgQ0EwHhcNMjIxMTEwMjAyODE0WhcNMzIxMTA5MjAyODE0WjB6MRMwEQYKCZIm
iZPyLGQBGRYDb3JnMRYwFAYKCZImiZPyLGQBGRYGc2ltcGxlMRMwEQYDVQQKDApT
aW1wbGUgSW5jMRowGAYDVQQLDBFTaW1wbGUgU2lnbmluZyBDQTEaMBgGA1UEAwwR
U2ltcGxlIFNpZ25pbmcgQ0EwggEiMA0GCSqGSIb3DQEBAQUAA4IBDwAwggEKAoIB
AQCjNxeqTV3yBIm3gwOwVSgVci3KzaJVETXC7vBPAYrwYqgM300bMtZCUNoxd6Hx
i1VL1R/W/XGQ9CLd3t0GuPgOYv1kz2MlhogqhqSCz9EygBLGTB00uNDbjx4XlwS+
FJEtaQRobA3g0P6+GR5ChWScgbi2Gd/6c/8njb8e2yDXqAu9/VsrGmGQAo63au4/
6Nxa8qczvotaOjFT0rz8pzyv6bwarz8mTN6Lvp030Q1PbRGGeozA5Bp76zLOR60s
29qj9JpHey5h5zdG4W1Hch1NDU/KVl7b19opuBSCoFhOKRyjbiXg2jZ4tEtc89Gy
FUdTPGNvlhQqYDtPSGAAK1txAgMBAAGjZjBkMA4GA1UdDwEB/wQEAwIBBjASBgNV
HRMBAf8ECDAGAQH/AgEAMB0GA1UdDgQWBBQ0e9MyIlsOe16VxIyKohgg1JgwSzAf
BgNVHSMEGDAWgBSbR4uVC58wWyWbK/bqexoabdjK6TANBgkqhkiG9w0BAQUFAAOC
AQEAKhO9e04hza+ViEyE8IqlmJ5RBubijVPafDaxPBQGlFb5zHO99qJHCZp92/Zt
JtUBMwr2rUiKtzECu5sQeE+eeI28MMrBmRLe5Gfm73j6AOPH1MLdEqnCkUO0hTRJ
yTSridnSqAqKa2kxafV3HMwqjPot6ba3PJTWHoFrO/p5yWmFs8JnC2VlRl0+XyYn
OaQI3V0BQlhOv04ThZ6jJMWFtC7TYmAm7xh9MHSKDIfCmIqJ0lWuM3/sGlTPtTNG
h9mor2rXtJq9i2nSTVh/S2/S9XGE1ja19NpqDqzBvAuNCAWAoYVU2/y9OARLzA4x
NnwNu5CddlCqG9wT1FU0xu1XPQ==
-----END CERTIFICATE-----
Certificate:
    Data:
        Version: 3 (0x2)
        Serial Number: 1 (0x1)
        Signature Algorithm: sha1WithRSAEncryption
        Issuer: DC=org, DC=simple, O=Simple Inc, OU=Simple Root CA, CN=Simple Root CA
        Validity
            Not Before: Nov 10 20:26:19 2022 GMT
            Not After : Nov  9 20:26:19 2032 GMT
        Subject: DC=org, DC=simple, O=Simple Inc, OU=Simple Root CA, CN=Simple Root CA
        Subject Public Key Info:
            Public Key Algorithm: rsaEncryption
                RSA Public-Key: (2048 bit)
                Modulus:
                    00:f2:c4:7c:cd:29:31:65:71:5f:c3:dc:6f:aa:23:
                    e2:0d:0c:48:d2:42:10:f6:45:63:9d:c9:ad:82:f5:
                    02:2b:56:44:93:97:4f:33:6d:05:c1:1d:a1:9c:5d:
                    1b:23:a3:d8:24:6d:f8:87:ad:61:c5:03:ce:34:d4:
                    1b:bf:d9:fa:ec:ad:b3:94:ff:24:93:d9:a8:50:17:
                    87:de:d9:44:94:02:57:82:3e:86:7e:d6:4a:da:b2:
                    f7:f1:b5:e7:bf:d3:a1:c5:a4:ba:50:3b:b8:da:5f:
                    e2:73:4b:1a:ef:f0:7d:d4:cb:d3:15:77:09:49:fb:
                    00:67:cc:d3:84:0c:a7:8a:1d:aa:5a:7d:23:d3:26:
                    31:b0:c3:6f:1d:71:cc:25:46:ea:7d:59:1c:25:86:
                    8c:d5:ad:f1:ff:7c:96:3e:1a:58:df:79:4b:59:83:
                    85:bf:2c:ff:45:5e:4d:20:76:44:96:9d:79:5e:bd:
                    83:8a:7b:dd:cd:68:ed:eb:42:7f:46:f1:b8:5a:7c:
                    e7:41:82:33:76:5f:7f:06:84:c4:38:6d:95:52:6c:
                    e4:1f:b9:79:d4:7b:1e:96:49:7f:4a:9f:05:2a:9c:
                    2f:5f:57:b6:8a:e5:52:56:c5:1d:da:25:43:00:c0:
                    ec:77:68:3e:9c:f4:24:f7:44:77:cc:72:00:b1:22:
                    d4:29
                Exponent: 65537 (0x10001)
        X509v3 extensions:
            X509v3 Key Usage: critical
                Certificate Sign, CRL Sign
            X509v3 Basic Constraints: critical
                CA:TRUE
            X509v3 Subject Key Identifier: 
                9B:47:8B:95:0B:9F:30:5B:25:9B:2B:F6:EA:7B:1A:1A:6D:D8:CA:E9
            X509v3 Authority Key Identifier: 
                keyid:9B:47:8B:95:0B:9F:30:5B:25:9B:2B:F6:EA:7B:1A:1A:6D:D8:CA:E9

    Signature Algorithm: sha1WithRSAEncryption
         7a:ec:47:48:12:68:c1:9f:8c:ed:c5:6d:d6:0a:1f:60:2f:8b:
         2f:6a:7c:b5:46:46:0f:12:f7:9f:40:47:41:0b:14:44:02:a0:
         d1:9e:0c:1d:ac:24:06:1c:e1:94:88:97:8c:44:b1:01:d1:63:
         e3:dc:c1:a3:9e:02:1c:8c:5f:b4:e1:a8:d0:5a:f3:7c:10:de:
         61:c1:c1:37:54:bb:ca:3c:96:a3:53:50:20:eb:74:90:81:b6:
         f2:c7:3a:7f:c9:2d:ba:3b:b0:20:8b:50:de:cf:17:57:27:b0:
         e6:91:62:1f:d5:3e:df:df:f0:13:0b:01:42:27:bc:01:06:b3:
         7d:ca:e6:b2:3d:fb:bd:73:26:82:4d:e4:c4:e8:8e:b0:55:cc:
         35:4f:84:82:a3:f4:6a:4b:6d:48:79:e2:e9:d2:b8:3b:da:9f:
         62:68:30:75:d7:fe:ec:52:e6:13:e8:7a:f0:fb:f7:14:9f:fb:
         44:85:9d:09:0c:ec:72:36:f2:5e:02:fc:3b:57:17:10:97:51:
         4b:58:b5:f9:11:b4:74:5e:06:c7:57:d9:4e:c4:e6:23:13:11:
         06:fc:1c:1d:ab:49:c1:cc:55:54:78:be:42:d5:02:5a:7e:f5:
         33:40:b5:d7:e5:a5:99:c4:b3:72:e5:46:40:6c:a3:65:b3:69:
         4e:a7:2a:97
-----BEGIN CERTIFICATE-----
MIIDxjCCAq6gAwIBAgIBATANBgkqhkiG9w0BAQUFADB0MRMwEQYKCZImiZPyLGQB
GRYDb3JnMRYwFAYKCZImiZPyLGQBGRYGc2ltcGxlMRMwEQYDVQQKDApTaW1wbGUg
SW5jMRcwFQYDVQQLDA5TaW1wbGUgUm9vdCBDQTEXMBUGA1UEAwwOU2ltcGxlIFJv
b3QgQ0EwHhcNMjIxMTEwMjAyNjE5WhcNMzIxMTA5MjAyNjE5WjB0MRMwEQYKCZIm
iZPyLGQBGRYDb3JnMRYwFAYKCZImiZPyLGQBGRYGc2ltcGxlMRMwEQYDVQQKDApT
aW1wbGUgSW5jMRcwFQYDVQQLDA5TaW1wbGUgUm9vdCBDQTEXMBUGA1UEAwwOU2lt
cGxlIFJvb3QgQ0EwggEiMA0GCSqGSIb3DQEBAQUAA4IBDwAwggEKAoIBAQDyxHzN
KTFlcV/D3G+qI+INDEjSQhD2RWOdya2C9QIrVkSTl08zbQXBHaGcXRsjo9gkbfiH
rWHFA8401Bu/2frsrbOU/yST2ahQF4fe2USUAleCPoZ+1krasvfxtee/06HFpLpQ
O7jaX+JzSxrv8H3Uy9MVdwlJ+wBnzNOEDKeKHapafSPTJjGww28dccwlRup9WRwl
hozVrfH/fJY+GljfeUtZg4W/LP9FXk0gdkSWnXlevYOKe93NaO3rQn9G8bhafOdB
gjN2X38GhMQ4bZVSbOQfuXnUex6WSX9KnwUqnC9fV7aK5VJWxR3aJUMAwOx3aD6c
9CT3RHfMcgCxItQpAgMBAAGjYzBhMA4GA1UdDwEB/wQEAwIBBjAPBgNVHRMBAf8E
BTADAQH/MB0GA1UdDgQWBBSbR4uVC58wWyWbK/bqexoabdjK6TAfBgNVHSMEGDAW
gBSbR4uVC58wWyWbK/bqexoabdjK6TANBgkqhkiG9w0BAQUFAAOCAQEAeuxHSBJo
wZ+M7cVt1gofYC+LL2p8tUZGDxL3n0BHQQsURAKg0Z4MHawkBhzhlIiXjESxAdFj
49zBo54CHIxftOGo0FrzfBDeYcHBN1S7yjyWo1NQIOt0kIG28sc6f8ktujuwIItQ
3s8XVyew5pFiH9U+39/wEwsBQie8AQazfcrmsj37vXMmgk3kxOiOsFXMNU+EgqP0
akttSHni6dK4O9qfYmgwddf+7FLmE+h68Pv3FJ/7RIWdCQzscjbyXgL8O1cXEJdR
S1i1+RG0dF4Gx1fZTsTmIxMRBvwcHatJwcxVVHi+QtUCWn71M0C11+WlmcSzcuVG
QGyjZbNpTqcqlw==
-----END CERTIFICATE-----
