Certificate:
    Data:
        Version: 3 (0x2)
        Serial Number: 1 (0x1)
        Signature Algorithm: sha1WithRSAEncryption
        Issuer: DC=org, DC=simple, O=Simple Inc, OU=Simple Root CA, CN=Simple Root CA
        Validity
            Not Before: Nov 10 20:26:19 2022 GMT
            Not After : Nov  9 20:26:19 2032 GMT
        Subject: DC=org, DC=simple, O=Simple Inc, OU=Simple Root CA, CN=Simple Root CA
        Subject Public Key Info:
            Public Key Algorithm: rsaEncryption
                RSA Public-Key: (2048 bit)
                Modulus:
                    00:f2:c4:7c:cd:29:31:65:71:5f:c3:dc:6f:aa:23:
                    e2:0d:0c:48:d2:42:10:f6:45:63:9d:c9:ad:82:f5:
                    02:2b:56:44:93:97:4f:33:6d:05:c1:1d:a1:9c:5d:
                    1b:23:a3:d8:24:6d:f8:87:ad:61:c5:03:ce:34:d4:
                    1b:bf:d9:fa:ec:ad:b3:94:ff:24:93:d9:a8:50:17:
                    87:de:d9:44:94:02:57:82:3e:86:7e:d6:4a:da:b2:
                    f7:f1:b5:e7:bf:d3:a1:c5:a4:ba:50:3b:b8:da:5f:
                    e2:73:4b:1a:ef:f0:7d:d4:cb:d3:15:77:09:49:fb:
                    00:67:cc:d3:84:0c:a7:8a:1d:aa:5a:7d:23:d3:26:
                    31:b0:c3:6f:1d:71:cc:25:46:ea:7d:59:1c:25:86:
                    8c:d5:ad:f1:ff:7c:96:3e:1a:58:df:79:4b:59:83:
                    85:bf:2c:ff:45:5e:4d:20:76:44:96:9d:79:5e:bd:
                    83:8a:7b:dd:cd:68:ed:eb:42:7f:46:f1:b8:5a:7c:
                    e7:41:82:33:76:5f:7f:06:84:c4:38:6d:95:52:6c:
                    e4:1f:b9:79:d4:7b:1e:96:49:7f:4a:9f:05:2a:9c:
                    2f:5f:57:b6:8a:e5:52:56:c5:1d:da:25:43:00:c0:
                    ec:77:68:3e:9c:f4:24:f7:44:77:cc:72:00:b1:22:
                    d4:29
                Exponent: 65537 (0x10001)
        X509v3 extensions:
            X509v3 Key Usage: critical
                Certificate Sign, CRL Sign
            X509v3 Basic Constraints: critical
                CA:TRUE
            X509v3 Subject Key Identifier: 
                9B:47:8B:95:0B:9F:30:5B:25:9B:2B:F6:EA:7B:1A:1A:6D:D8:CA:E9
            X509v3 Authority Key Identifier: 
                keyid:9B:47:8B:95:0B:9F:30:5B:25:9B:2B:F6:EA:7B:1A:1A:6D:D8:CA:E9

    Signature Algorithm: sha1WithRSAEncryption
         7a:ec:47:48:12:68:c1:9f:8c:ed:c5:6d:d6:0a:1f:60:2f:8b:
         2f:6a:7c:b5:46:46:0f:12:f7:9f:40:47:41:0b:14:44:02:a0:
         d1:9e:0c:1d:ac:24:06:1c:e1:94:88:97:8c:44:b1:01:d1:63:
         e3:dc:c1:a3:9e:02:1c:8c:5f:b4:e1:a8:d0:5a:f3:7c:10:de:
         61:c1:c1:37:54:bb:ca:3c:96:a3:53:50:20:eb:74:90:81:b6:
         f2:c7:3a:7f:c9:2d:ba:3b:b0:20:8b:50:de:cf:17:57:27:b0:
         e6:91:62:1f:d5:3e:df:df:f0:13:0b:01:42:27:bc:01:06:b3:
         7d:ca:e6:b2:3d:fb:bd:73:26:82:4d:e4:c4:e8:8e:b0:55:cc:
         35:4f:84:82:a3:f4:6a:4b:6d:48:79:e2:e9:d2:b8:3b:da:9f:
         62:68:30:75:d7:fe:ec:52:e6:13:e8:7a:f0:fb:f7:14:9f:fb:
         44:85:9d:09:0c:ec:72:36:f2:5e:02:fc:3b:57:17:10:97:51:
         4b:58:b5:f9:11:b4:74:5e:06:c7:57:d9:4e:c4:e6:23:13:11:
         06:fc:1c:1d:ab:49:c1:cc:55:54:78:be:42:d5:02:5a:7e:f5:
         33:40:b5:d7:e5:a5:99:c4:b3:72:e5:46:40:6c:a3:65:b3:69:
         4e:a7:2a:97
-----BEGIN CERTIFICATE-----
MIIDxjCCAq6gAwIBAgIBATANBgkqhkiG9w0BAQUFADB0MRMwEQYKCZImiZPyLGQB
GRYDb3JnMRYwFAYKCZImiZPyLGQBGRYGc2ltcGxlMRMwEQYDVQQKDApTaW1wbGUg
SW5jMRcwFQYDVQQLDA5TaW1wbGUgUm9vdCBDQTEXMBUGA1UEAwwOU2ltcGxlIFJv
b3QgQ0EwHhcNMjIxMTEwMjAyNjE5WhcNMzIxMTA5MjAyNjE5WjB0MRMwEQYKCZIm
iZPyLGQBGRYDb3JnMRYwFAYKCZImiZPyLGQBGRYGc2ltcGxlMRMwEQYDVQQKDApT
aW1wbGUgSW5jMRcwFQYDVQQLDA5TaW1wbGUgUm9vdCBDQTEXMBUGA1UEAwwOU2lt
cGxlIFJvb3QgQ0EwggEiMA0GCSqGSIb3DQEBAQUAA4IBDwAwggEKAoIBAQDyxHzN
KTFlcV/D3G+qI+INDEjSQhD2RWOdya2C9QIrVkSTl08zbQXBHaGcXRsjo9gkbfiH
rWHFA8401Bu/2frsrbOU/yST2ahQF4fe2USUAleCPoZ+1krasvfxtee/06HFpLpQ
O7jaX+JzSxrv8H3Uy9MVdwlJ+wBnzNOEDKeKHapafSPTJjGww28dccwlRup9WRwl
hozVrfH/fJY+GljfeUtZg4W/LP9FXk0gdkSWnXlevYOKe93NaO3rQn9G8bhafOdB
gjN2X38GhMQ4bZVSbOQfuXnUex6WSX9KnwUqnC9fV7aK5VJWxR3aJUMAwOx3aD6c
9CT3RHfMcgCxItQpAgMBAAGjYzBhMA4GA1UdDwEB/wQEAwIBBjAPBgNVHRMBAf8E
BTADAQH/MB0GA1UdDgQWBBSbR4uVC58wWyWbK/bqexoabdjK6TAfBgNVHSMEGDAW
gBSbR4uVC58wWyWbK/bqexoabdjK6TANBgkqhkiG9w0BAQUFAAOCAQEAeuxHSBJo
wZ+M7cVt1gofYC+LL2p8tUZGDxL3n0BHQQsURAKg0Z4MHawkBhzhlIiXjESxAdFj
49zBo54CHIxftOGo0FrzfBDeYcHBN1S7yjyWo1NQIOt0kIG28sc6f8ktujuwIItQ
3s8XVyew5pFiH9U+39/wEwsBQie8AQazfcrmsj37vXMmgk3kxOiOsFXMNU+EgqP0
akttSHni6dK4O9qfYmgwddf+7FLmE+h68Pv3FJ/7RIWdCQzscjbyXgL8O1cXEJdR
S1i1+RG0dF4Gx1fZTsTmIxMRBvwcHatJwcxVVHi+QtUCWn71M0C11+WlmcSzcuVG
QGyjZbNpTqcqlw==
-----END CERTIFICATE-----
