Certificate:
    Data:
        Version: 3 (0x2)
        Serial Number: 2 (0x2)
        Signature Algorithm: sha1WithRSAEncryption
        Issuer: DC=org, DC=simple, O=Simple Inc, OU=Simple Root CA, CN=Simple Root CA
        Validity
            Not Before: Nov 10 20:28:14 2022 GMT
            Not After : Nov  9 20:28:14 2032 GMT
        Subject: DC=org, DC=simple, O=Simple Inc, OU=Simple Signing CA, CN=Simple Signing CA
        Subject Public Key Info:
            Public Key Algorithm: rsaEncryption
                RSA Public-Key: (2048 bit)
                Modulus:
                    00:a3:37:17:aa:4d:5d:f2:04:89:b7:83:03:b0:55:
                    28:15:72:2d:ca:cd:a2:55:11:35:c2:ee:f0:4f:01:
                    8a:f0:62:a8:0c:df:4d:1b:32:d6:42:50:da:31:77:
                    a1:f1:8b:55:4b:d5:1f:d6:fd:71:90:f4:22:dd:de:
                    dd:06:b8:f8:0e:62:fd:64:cf:63:25:86:88:2a:86:
                    a4:82:cf:d1:32:80:12:c6:4c:1d:34:b8:d0:db:8f:
                    1e:17:97:04:be:14:91:2d:69:04:68:6c:0d:e0:d0:
                    fe:be:19:1e:42:85:64:9c:81:b8:b6:19:df:fa:73:
                    ff:27:8d:bf:1e:db:20:d7:a8:0b:bd:fd:5b:2b:1a:
                    61:90:02:8e:b7:6a:ee:3f:e8:dc:5a:f2:a7:33:be:
                    8b:5a:3a:31:53:d2:bc:fc:a7:3c:af:e9:bc:1a:af:
                    3f:26:4c:de:8b:be:9d:37:d1:0d:4f:6d:11:86:7a:
                    8c:c0:e4:1a:7b:eb:32:ce:47:ad:2c:db:da:a3:f4:
                    9a:47:7b:2e:61:e7:37:46:e1:6d:47:72:1d:4d:0d:
                    4f:ca:56:5e:db:d7:da:29:b8:14:82:a0:58:4e:29:
                    1c:a3:6e:25:e0:da:36:78:b4:4b:5c:f3:d1:b2:15:
                    47:53:3c:63:6f:96:14:2a:60:3b:4f:48:60:00:2b:
                    5b:71
                Exponent: 65537 (0x10001)
        X509v3 extensions:
            X509v3 Key Usage: critical
                Certificate Sign, CRL Sign
            X509v3 Basic Constraints: critical
                CA:TRUE, pathlen:0
            X509v3 Subject Key Identifier: 
                34:7B:D3:32:22:5B:0E:7B:5E:95:C4:8C:8A:A2:18:20:D4:98:30:4B
            X509v3 Authority Key Identifier: 
                keyid:9B:47:8B:95:0B:9F:30:5B:25:9B:2B:F6:EA:7B:1A:1A:6D:D8:CA:E9

    Signature Algorithm: sha1WithRSAEncryption
         2a:13:bd:7b:4e:21:cd:af:95:88:4c:84:f0:8a:a5:98:9e:51:
         06:e6:e2:8d:53:da:7c:36:b1:3c:14:06:94:56:f9:cc:73:bd:
         f6:a2:47:09:9a:7d:db:f6:6d:26:d5:01:33:0a:f6:ad:48:8a:
         b7:31:02:bb:9b:10:78:4f:9e:78:8d:bc:30:ca:c1:99:12:de:
         e4:67:e6:ef:78:fa:00:e3:c7:d4:c2:dd:12:a9:c2:91:43:b4:
         85:34:49:c9:34:ab:89:d9:d2:a8:0a:8a:6b:69:31:69:f5:77:
         1c:cc:2a:8c:fa:2d:e9:b6:b7:3c:94:d6:1e:81:6b:3b:fa:79:
         c9:69:85:b3:c2:67:0b:65:65:46:5d:3e:5f:26:27:39:a4:08:
         dd:5d:01:42:58:4e:bf:4e:13:85:9e:a3:24:c5:85:b4:2e:d3:
         62:60:26:ef:18:7d:30:74:8a:0c:87:c2:98:8a:89:d2:55:ae:
         33:7f:ec:1a:54:cf:b5:33:46:87:d9:a8:af:6a:d7:b4:9a:bd:
         8b:69:d2:4d:58:7f:4b:6f:d2:f5:71:84:d6:36:b5:f4:da:6a:
         0e:ac:c1:bc:0b:8d:08:05:80:a1:85:54:db:fc:bd:38:04:4b:
         cc:0e:31:36:7c:0d:bb:90:9d:76:50:aa:1b:dc:13:d4:55:34:
         c6:ed:57:3d
-----BEGIN CERTIFICATE-----
MIIDzzCCAregAwIBAgIBAjANBgkqhkiG9w0BAQUFADB0MRMwEQYKCZImiZPyLGQB
GRYDb3JnMRYwFAYKCZImiZPyLGQBGRYGc2ltcGxlMRMwEQYDVQQKDApTaW1wbGUg
SW5jMRcwFQYDVQQLDA5TaW1wbGUgUm9vdCBDQTEXMBUGA1UEAwwOU2ltcGxlIFJv
b3QgQ0EwHhcNMjIxMTEwMjAyODE0WhcNMzIxMTA5MjAyODE0WjB6MRMwEQYKCZIm
iZPyLGQBGRYDb3JnMRYwFAYKCZImiZPyLGQBGRYGc2ltcGxlMRMwEQYDVQQKDApT
aW1wbGUgSW5jMRowGAYDVQQLDBFTaW1wbGUgU2lnbmluZyBDQTEaMBgGA1UEAwwR
U2ltcGxlIFNpZ25pbmcgQ0EwggEiMA0GCSqGSIb3DQEBAQUAA4IBDwAwggEKAoIB
AQCjNxeqTV3yBIm3gwOwVSgVci3KzaJVETXC7vBPAYrwYqgM300bMtZCUNoxd6Hx
i1VL1R/W/XGQ9CLd3t0GuPgOYv1kz2MlhogqhqSCz9EygBLGTB00uNDbjx4XlwS+
FJEtaQRobA3g0P6+GR5ChWScgbi2Gd/6c/8njb8e2yDXqAu9/VsrGmGQAo63au4/
6Nxa8qczvotaOjFT0rz8pzyv6bwarz8mTN6Lvp030Q1PbRGGeozA5Bp76zLOR60s
29qj9JpHey5h5zdG4W1Hch1NDU/KVl7b19opuBSCoFhOKRyjbiXg2jZ4tEtc89Gy
FUdTPGNvlhQqYDtPSGAAK1txAgMBAAGjZjBkMA4GA1UdDwEB/wQEAwIBBjASBgNV
HRMBAf8ECDAGAQH/AgEAMB0GA1UdDgQWBBQ0e9MyIlsOe16VxIyKohgg1JgwSzAf
BgNVHSMEGDAWgBSbR4uVC58wWyWbK/bqexoabdjK6TANBgkqhkiG9w0BAQUFAAOC
AQEAKhO9e04hza+ViEyE8IqlmJ5RBubijVPafDaxPBQGlFb5zHO99qJHCZp92/Zt
JtUBMwr2rUiKtzECu5sQeE+eeI28MMrBmRLe5Gfm73j6AOPH1MLdEqnCkUO0hTRJ
yTSridnSqAqKa2kxafV3HMwqjPot6ba3PJTWHoFrO/p5yWmFs8JnC2VlRl0+XyYn
OaQI3V0BQlhOv04ThZ6jJMWFtC7TYmAm7xh9MHSKDIfCmIqJ0lWuM3/sGlTPtTNG
h9mor2rXtJq9i2nSTVh/S2/S9XGE1ja19NpqDqzBvAuNCAWAoYVU2/y9OARLzA4x
NnwNu5CddlCqG9wT1FU0xu1XPQ==
-----END CERTIFICATE-----
