Certificate:
    Data:
        Version: 3 (0x2)
        Serial Number: 1 (0x1)
        Signature Algorithm: sha1WithRSAEncryption
        Issuer: DC=org, DC=simple, O=Simple Inc, OU=Simple Signing CA, CN=Simple Signing CA
        Validity
            Not Before: Nov 10 20:31:04 2022 GMT
            Not After : Nov  9 20:31:04 2024 GMT
        Subject: DC=org, DC=simple, O=Simple Inc, CN=Fred Flintstone
        Subject Public Key Info:
            Public Key Algorithm: rsaEncryption
                RSA Public-Key: (2048 bit)
                Modulus:
                    00:d4:18:97:7e:81:96:16:5a:c9:55:2b:c3:fb:62:
                    d6:cd:75:96:a1:f0:7d:6d:90:87:10:54:b4:2f:82:
                    4b:fb:69:56:4a:c6:b6:3a:c2:81:91:af:f4:c0:3a:
                    94:11:c5:ea:39:2e:c9:f7:1f:2b:88:69:21:6a:93:
                    9d:7e:aa:6f:69:a7:af:1e:86:4a:6e:89:06:e6:d6:
                    28:66:cf:2e:6f:53:b5:2e:c3:d4:87:54:6a:83:93:
                    f2:84:ec:dd:2b:02:34:3c:d9:8f:83:90:c6:82:bc:
                    6b:1a:0e:89:4d:2a:d2:a1:47:31:51:23:6d:0c:79:
                    47:86:91:40:09:6e:9a:04:22:65:1a:84:91:0a:6e:
                    c9:b5:73:3a:38:12:34:11:21:0f:89:87:64:8c:ef:
                    af:1d:bb:ae:30:f8:32:85:c6:0f:2c:11:79:6f:b5:
                    e8:d4:3a:36:2c:21:4f:9c:d8:da:7b:bd:c9:93:8d:
                    20:75:be:31:49:0f:09:17:7b:b9:c7:dd:a9:df:09:
                    76:c8:b3:4e:8f:5a:21:87:27:6b:40:77:54:80:b2:
                    28:fb:ca:9c:4e:b7:76:7b:61:f8:79:33:b9:ae:36:
                    32:13:8e:39:74:9c:ef:08:3e:b0:87:3b:cf:2b:a2:
                    77:48:e7:a7:96:6d:2e:7f:aa:cb:f4:b8:95:26:5f:
                    b7:05
                Exponent: 65537 (0x10001)
        X509v3 extensions:
            X509v3 Key Usage: critical
                Digital Signature, Key Encipherment
            X509v3 Basic Constraints: 
                CA:FALSE
            X509v3 Extended Key Usage: 
                E-mail Protection, TLS Web Client Authentication
            X509v3 Subject Key Identifier: 
                6C:35:E1:9F:00:D3:86:64:E4:DA:97:17:26:84:05:52:B9:5F:5E:47
            X509v3 Authority Key Identifier: 
                keyid:34:7B:D3:32:22:5B:0E:7B:5E:95:C4:8C:8A:A2:18:20:D4:98:30:4B

            X509v3 Subject Alternative Name: 
                email:fred@simple.org
    Signature Algorithm: sha1WithRSAEncryption
         71:21:ad:e1:de:89:d1:2f:27:41:2d:fa:04:7f:ea:8b:69:5a:
         1f:f1:ad:ef:48:c5:2a:32:f8:d1:42:80:14:63:3b:17:04:d7:
         65:ce:c7:22:b2:ac:e7:3b:f2:9c:6e:12:9f:c1:63:50:ad:f4:
         f9:c0:fc:64:87:9e:68:83:46:ec:61:60:8b:9c:02:aa:69:06:
         69:0e:33:6d:1a:ba:de:3b:e8:3e:69:19:e9:f1:75:7a:0d:be:
         22:ec:18:47:01:bf:88:c6:95:71:35:16:d6:1a:41:99:f2:83:
         82:c4:9b:e0:13:b4:42:d3:b2:d2:63:4b:ff:0e:c2:ed:c8:51:
         d7:a6:b7:16:41:71:e9:57:41:96:46:41:50:dc:d9:15:43:91:
         41:e8:60:f1:13:f9:bd:4b:33:a6:64:a6:7a:1d:28:5a:68:6c:
         5c:84:96:a5:6e:3a:e4:75:5e:c9:ae:bc:e1:dc:30:da:53:6b:
         09:d7:ad:be:2f:4c:7f:87:4a:d1:5a:5e:4f:3d:3a:06:b3:b9:
         24:3f:0e:da:ac:ee:4c:43:42:45:b0:19:9d:36:fa:02:dc:da:
         3c:23:ef:66:b8:51:c1:7f:f1:03:cd:e3:ef:a4:b0:60:48:8b:
         6a:f6:f0:20:58:36:94:d1:57:56:0c:62:86:71:29:cf:3a:50:
         76:1d:a3:07
-----BEGIN CERTIFICATE-----
MIID6zCCAtOgAwIBAgIBATANBgkqhkiG9w0BAQUFADB6MRMwEQYKCZImiZPyLGQB
GRYDb3JnMRYwFAYKCZImiZPyLGQBGRYGc2ltcGxlMRMwEQYDVQQKDApTaW1wbGUg
SW5jMRowGAYDVQQLDBFTaW1wbGUgU2lnbmluZyBDQTEaMBgGA1UEAwwRU2ltcGxl
IFNpZ25pbmcgQ0EwHhcNMjIxMTEwMjAzMTA0WhcNMjQxMTA5MjAzMTA0WjBcMRMw
EQYKCZImiZPyLGQBGRYDb3JnMRYwFAYKCZImiZPyLGQBGRYGc2ltcGxlMRMwEQYD
VQQKDApTaW1wbGUgSW5jMRgwFgYDVQQDDA9GcmVkIEZsaW50c3RvbmUwggEiMA0G
CSqGSIb3DQEBAQUAA4IBDwAwggEKAoIBAQDUGJd+gZYWWslVK8P7YtbNdZah8H1t
kIcQVLQvgkv7aVZKxrY6woGRr/TAOpQRxeo5Lsn3HyuIaSFqk51+qm9pp68ehkpu
iQbm1ihmzy5vU7Uuw9SHVGqDk/KE7N0rAjQ82Y+DkMaCvGsaDolNKtKhRzFRI20M
eUeGkUAJbpoEImUahJEKbsm1czo4EjQRIQ+Jh2SM768du64w+DKFxg8sEXlvtejU
OjYsIU+c2Np7vcmTjSB1vjFJDwkXe7nH3anfCXbIs06PWiGHJ2tAd1SAsij7ypxO
t3Z7Yfh5M7muNjITjjl0nO8IPrCHO88rondI56eWbS5/qsv0uJUmX7cFAgMBAAGj
gZkwgZYwDgYDVR0PAQH/BAQDAgWgMAkGA1UdEwQCMAAwHQYDVR0lBBYwFAYIKwYB
BQUHAwQGCCsGAQUFBwMCMB0GA1UdDgQWBBRsNeGfANOGZOTalxcmhAVSuV9eRzAf
BgNVHSMEGDAWgBQ0e9MyIlsOe16VxIyKohgg1JgwSzAaBgNVHREEEzARgQ9mcmVk
QHNpbXBsZS5vcmcwDQYJKoZIhvcNAQEFBQADggEBAHEhreHeidEvJ0Et+gR/6otp
Wh/xre9IxSoy+NFCgBRjOxcE12XOxyKyrOc78pxuEp/BY1Ct9PnA/GSHnmiDRuxh
YIucAqppBmkOM20aut476D5pGenxdXoNviLsGEcBv4jGlXE1FtYaQZnyg4LEm+AT
tELTstJjS/8Owu3IUdemtxZBcelXQZZGQVDc2RVDkUHoYPET+b1LM6ZkpnodKFpo
bFyElqVuOuR1XsmuvOHcMNpTawnXrb4vTH+HStFaXk89OgazuSQ/Dtqs7kxDQkWw
GZ02+gLc2jwj72a4UcF/8QPN4++ksGBIi2r28CBYNpTRV1YMYoZxKc86UHYdowc=
-----END CERTIFICATE-----
