Certificate:
    Data:
        Version: 3 (0x2)
        Serial Number: 2 (0x2)
        Signature Algorithm: sha1WithRSAEncryption
        Issuer: DC=org, DC=simple, O=Simple Inc, OU=Simple Signing CA, CN=Simple Signing CA
        Validity
            Not Before: Nov 10 20:32:37 2022 GMT
            Not After : Nov  9 20:32:37 2024 GMT
        Subject: DC=org, DC=simple, O=Simple Inc, CN=www.simple.org
        Subject Public Key Info:
            Public Key Algorithm: rsaEncryption
                RSA Public-Key: (2048 bit)
                Modulus:
                    00:aa:1f:07:8b:87:bf:c6:86:55:9e:e9:17:76:17:
                    fd:4c:c9:27:0a:e5:fe:3b:48:9e:77:6c:d3:3d:34:
                    94:1b:82:90:f5:f4:3c:18:1c:dc:48:34:47:e7:ff:
                    5c:65:48:5f:5c:2e:e5:52:98:43:2c:72:f0:b7:b5:
                    52:77:1f:34:70:21:1f:65:f7:f0:f2:4f:4a:62:75:
                    fb:75:61:cd:23:30:aa:da:09:66:00:4c:0c:91:0c:
                    e6:ca:38:39:c2:be:08:e1:9c:e4:5c:1e:26:1c:49:
                    50:03:6c:a4:f4:e1:89:76:44:66:49:5a:b4:65:a8:
                    55:a5:b5:c1:18:7b:d0:bf:98:8d:5d:77:b1:0c:a9:
                    6d:77:a0:40:05:5b:cc:8f:c0:ce:da:6b:ff:9e:71:
                    6e:38:56:42:90:17:cc:a4:68:ea:9f:1a:10:2f:01:
                    4f:41:a3:a2:1d:74:a8:92:47:7d:92:e3:64:7f:af:
                    3f:d5:33:3e:d1:22:21:36:b6:29:07:11:c7:ab:84:
                    36:30:14:2d:d1:f2:a5:14:62:f0:67:0c:06:5c:20:
                    4a:2c:b5:26:3d:8a:2f:cd:6d:c0:06:33:35:3a:9a:
                    2c:60:a7:51:ca:44:ae:e3:fb:cd:fb:65:51:e0:73:
                    10:2e:f3:29:b0:30:db:ee:b5:bc:7d:bc:3a:27:d6:
                    a2:33
                Exponent: 65537 (0x10001)
        X509v3 extensions:
            X509v3 Key Usage: critical
                Digital Signature, Key Encipherment
            X509v3 Basic Constraints: 
                CA:FALSE
            X509v3 Extended Key Usage: 
                TLS Web Server Authentication, TLS Web Client Authentication
            X509v3 Subject Key Identifier: 
                71:E1:A7:F6:5D:5B:8F:BC:F9:F3:B9:4F:98:BA:2E:98:1F:AE:B2:D6
            X509v3 Authority Key Identifier: 
                keyid:34:7B:D3:32:22:5B:0E:7B:5E:95:C4:8C:8A:A2:18:20:D4:98:30:4B

            X509v3 Subject Alternative Name: 
                DNS:www.simple.org
    Signature Algorithm: sha1WithRSAEncryption
         51:03:93:28:b0:1a:9d:9c:f4:8f:f1:0c:ba:13:17:c8:30:52:
         a0:73:82:bb:c1:f5:4a:89:32:6d:4f:c7:b4:c0:11:78:a2:37:
         d8:6e:05:28:5b:6d:d4:c6:e6:c1:f4:e0:d9:df:1b:ad:60:02:
         a2:50:21:e0:d6:ed:8f:12:96:03:93:1e:a4:28:47:5a:03:f3:
         67:44:ce:ef:be:4d:2c:7c:e4:71:e2:72:ed:21:16:f1:37:ed:
         ed:96:36:89:ef:af:ce:49:0c:bc:5e:6f:ed:08:ce:9e:0d:b8:
         d7:37:15:56:5a:51:20:87:c1:5b:bd:0a:c8:99:ab:80:89:7a:
         e3:8c:35:ce:4f:54:4b:9d:d7:15:8e:da:f7:48:45:42:6c:36:
         05:5c:8b:82:d2:a3:cb:0b:4d:4f:eb:49:e5:06:ad:9c:84:f5:
         eb:30:01:7b:e8:83:14:b7:71:b4:1a:e9:ba:4d:d5:98:fe:47:
         ed:ea:66:eb:da:28:ca:93:8d:91:29:7e:6d:70:77:fd:a5:11:
         b4:a5:da:c0:af:ad:c0:66:80:ee:ba:e5:b5:23:33:4c:71:fd:
         6c:f5:b3:07:f0:70:88:27:c9:d7:55:de:44:55:63:2b:4b:18:
         e8:5f:0b:bb:0a:8e:c2:60:b0:37:5f:cf:3c:81:df:dd:40:bc:
         9d:01:d9:57
-----BEGIN CERTIFICATE-----
MIID6TCCAtGgAwIBAgIBAjANBgkqhkiG9w0BAQUFADB6MRMwEQYKCZImiZPyLGQB
GRYDb3JnMRYwFAYKCZImiZPyLGQBGRYGc2ltcGxlMRMwEQYDVQQKDApTaW1wbGUg
SW5jMRowGAYDVQQLDBFTaW1wbGUgU2lnbmluZyBDQTEaMBgGA1UEAwwRU2ltcGxl
IFNpZ25pbmcgQ0EwHhcNMjIxMTEwMjAzMjM3WhcNMjQxMTA5MjAzMjM3WjBbMRMw
EQYKCZImiZPyLGQBGRYDb3JnMRYwFAYKCZImiZPyLGQBGRYGc2ltcGxlMRMwEQYD
VQQKDApTaW1wbGUgSW5jMRcwFQYDVQQDDA53d3cuc2ltcGxlLm9yZzCCASIwDQYJ
KoZIhvcNAQEBBQADggEPADCCAQoCggEBAKofB4uHv8aGVZ7pF3YX/UzJJwrl/jtI
nnds0z00lBuCkPX0PBgc3Eg0R+f/XGVIX1wu5VKYQyxy8Le1UncfNHAhH2X38PJP
SmJ1+3VhzSMwqtoJZgBMDJEM5so4OcK+COGc5FweJhxJUANspPThiXZEZklatGWo
VaW1wRh70L+YjV13sQypbXegQAVbzI/Aztpr/55xbjhWQpAXzKRo6p8aEC8BT0Gj
oh10qJJHfZLjZH+vP9UzPtEiITa2KQcRx6uENjAULdHypRRi8GcMBlwgSiy1Jj2K
L81twAYzNTqaLGCnUcpEruP7zftlUeBzEC7zKbAw2+61vH28OifWojMCAwEAAaOB
mDCBlTAOBgNVHQ8BAf8EBAMCBaAwCQYDVR0TBAIwADAdBgNVHSUEFjAUBggrBgEF
BQcDAQYIKwYBBQUHAwIwHQYDVR0OBBYEFHHhp/ZdW4+8+fO5T5i6LpgfrrLWMB8G
A1UdIwQYMBaAFDR70zIiWw57XpXEjIqiGCDUmDBLMBkGA1UdEQQSMBCCDnd3dy5z
aW1wbGUub3JnMA0GCSqGSIb3DQEBBQUAA4IBAQBRA5MosBqdnPSP8Qy6ExfIMFKg
c4K7wfVKiTJtT8e0wBF4ojfYbgUoW23UxubB9ODZ3xutYAKiUCHg1u2PEpYDkx6k
KEdaA/NnRM7vvk0sfORx4nLtIRbxN+3tljaJ76/OSQy8Xm/tCM6eDbjXNxVWWlEg
h8FbvQrImauAiXrjjDXOT1RLndcVjtr3SEVCbDYFXIuC0qPLC01P60nlBq2chPXr
MAF76IMUt3G0Gum6TdWY/kft6mbr2ijKk42RKX5tcHf9pRG0pdrAr63AZoDuuuW1
IzNMcf1s9bMH8HCIJ8nXVd5EVWMrSxjoXwu7Co7CYLA3X888gd/dQLydAdlX
-----END CERTIFICATE-----
